target datalayout = "e-m:e-p270:32:32-p271:32:32-p272:64:64-i64:64-i128:128-f80:128-n8:16:32:64-S128"
target triple = "x86_64-pc-linux-gnu"

%"struct.Luau::TxnLog" = type { %"class.Luau::DenseHashMap", %"class.Luau::DenseHashMap.31", ptr, %"class.std::vector.34", i8, i8, ptr }
%"class.Luau::DenseHashMap" = type { %"class.Luau::detail::DenseHashTable" }
%"class.Luau::detail::DenseHashTable" = type <{ ptr, i64, i64, ptr, %"struct.Luau::DenseHashPointer", %"struct.std::equal_to", [6 x i8] }>
%"struct.Luau::DenseHashPointer" = type { i8 }
%"struct.std::equal_to" = type { i8 }
%"class.Luau::DenseHashMap.31" = type { %"class.Luau::detail::DenseHashTable.32" }
%"class.Luau::detail::DenseHashTable.32" = type <{ ptr, i64, i64, ptr, %"struct.Luau::DenseHashPointer", %"struct.std::equal_to.15", [6 x i8] }>
%"struct.std::equal_to.15" = type { i8 }
%"class.std::vector.34" = type { %"struct.std::_Vector_base.35" }
%"struct.std::_Vector_base.35" = type { %"struct.std::_Vector_base<std::pair<const void *, const void *>, std::allocator<std::pair<const void *, const void *>>>::_Vector_impl" }
%"struct.std::_Vector_base<std::pair<const void *, const void *>, std::allocator<std::pair<const void *, const void *>>>::_Vector_impl" = type { %"struct.std::_Vector_base<std::pair<const void *, const void *>, std::allocator<std::pair<const void *, const void *>>>::_Vector_impl_data" }
%"struct.std::_Vector_base<std::pair<const void *, const void *>, std::allocator<std::pair<const void *, const void *>>>::_Vector_impl_data" = type { ptr, ptr, ptr }
%"struct.Luau::PendingTypePack" = type { %"struct.Luau::TypePackVar" }
%"struct.Luau::TypePackVar" = type { %"class.Luau::Variant.30", i8, ptr }
%"class.Luau::Variant.30" = type { i32, [4 x i8], [64 x i8] }
%"struct.std::pair.134" = type { ptr, %"class.std::unique_ptr.43" }
%"class.std::unique_ptr.43" = type { %"struct.std::__uniq_ptr_data.44" }
%"struct.std::__uniq_ptr_data.44" = type { %"class.std::__uniq_ptr_impl.45" }
%"class.std::__uniq_ptr_impl.45" = type { %"class.std::tuple.46" }
%"class.std::tuple.46" = type { %"struct.std::_Tuple_impl.47" }
%"struct.std::_Tuple_impl.47" = type { %"struct.std::_Head_base.50" }
%"struct.std::_Head_base.50" = type { ptr }
%class.anon.128 = type { i8 }

; Function Attrs: mustprogress nounwind uwtable
define linkonce_odr dso_local noundef nonnull align 8 dereferenceable(8) ptr @_ZNSt10_Head_baseILm0EPN4Luau15PendingTypePackELb0EE7_M_headERKS3_(ptr noundef nonnull align 8 dereferenceable(8) %0) #5 comdat align 2 {
  %2 = alloca ptr, align 8
  store ptr %0, ptr %2, align 8
  %3 = load ptr, ptr %2, align 8
  %4 = getelementptr inbounds %"struct.std::_Head_base.50", ptr %3, i32 0, i32 0
  ret ptr %4
}

; Function Attrs: mustprogress nounwind uwtable
define linkonce_odr dso_local noundef nonnull align 8 dereferenceable(8) ptr @_ZNSt11_Tuple_implILm0EJPN4Luau15PendingTypePackESt14default_deleteIS1_EEE7_M_headERKS5_(ptr noundef nonnull align 8 dereferenceable(8) %0) #5 comdat align 2 {
  %2 = alloca ptr, align 8
  store ptr %0, ptr %2, align 8
  %3 = load ptr, ptr %2, align 8
  %4 = call noundef nonnull align 8 dereferenceable(8) ptr @_ZNSt10_Head_baseILm0EPN4Luau15PendingTypePackELb0EE7_M_headERKS3_(ptr noundef nonnull align 8 dereferenceable(8) %3) #3
  ret ptr %4
}

; Function Attrs: mustprogress nounwind uwtable
define linkonce_odr dso_local noundef nonnull align 8 dereferenceable(8) ptr @_ZSt12__get_helperILm0EPN4Luau15PendingTypePackEJSt14default_deleteIS1_EEERKT0_RKSt11_Tuple_implIXT_EJS5_DpT1_EE(ptr noundef nonnull align 8 dereferenceable(8) %0) #5 comdat {
  %2 = alloca ptr, align 8
  store ptr %0, ptr %2, align 8
  %3 = load ptr, ptr %2, align 8
  %4 = call noundef nonnull align 8 dereferenceable(8) ptr @_ZNSt11_Tuple_implILm0EJPN4Luau15PendingTypePackESt14default_deleteIS1_EEE7_M_headERKS5_(ptr noundef nonnull align 8 dereferenceable(8) %3) #3
  ret ptr %4
}

; Function Attrs: mustprogress nounwind uwtable
define linkonce_odr dso_local noundef nonnull align 8 dereferenceable(8) ptr @_ZSt3getILm0EJPN4Luau15PendingTypePackESt14default_deleteIS1_EEERKNSt13tuple_elementIXT_ESt5tupleIJDpT0_EEE4typeERKS9_(ptr noundef nonnull align 8 dereferenceable(8) %0) #5 comdat {
  %2 = alloca ptr, align 8
  store ptr %0, ptr %2, align 8
  %3 = load ptr, ptr %2, align 8
  %4 = call noundef nonnull align 8 dereferenceable(8) ptr @_ZSt12__get_helperILm0EPN4Luau15PendingTypePackEJSt14default_deleteIS1_EEERKT0_RKSt11_Tuple_implIXT_EJS5_DpT1_EE(ptr noundef nonnull align 8 dereferenceable(8) %3) #3
  ret ptr %4
}

; Function Attrs: mustprogress nounwind uwtable
define linkonce_odr dso_local noundef nonnull align 8 dereferenceable(8) ptr @_ZN4Luau6detail16ItemInterfaceMapIPKNS_11TypePackVarESt10unique_ptrINS_15PendingTypePackESt14default_deleteIS6_EEE6getKeyERKSt4pairIS4_S9_E(ptr noundef nonnull align 8 dereferenceable(16) %0) #5 comdat align 2 {
  %2 = alloca ptr, align 8
  store ptr %0, ptr %2, align 8
  %3 = load ptr, ptr %2, align 8
  %4 = getelementptr inbounds %"struct.std::pair.134", ptr %3, i32 0, i32 0
  ret ptr %4
}

; Function Attrs: mustprogress nounwind uwtable
define linkonce_odr dso_local noundef i64 @_ZNK4Luau16DenseHashPointerclEPKv(ptr noundef nonnull align 1 dereferenceable(1) %0, ptr noundef %1) #5 comdat align 2 {
  %3 = alloca ptr, align 8
  %4 = alloca ptr, align 8
  store ptr %0, ptr %3, align 8
  store ptr %1, ptr %4, align 8
  %5 = load ptr, ptr %4, align 8
  %6 = ptrtoint ptr %5 to i64
  %7 = lshr i64 %6, 4
  %8 = load ptr, ptr %4, align 8
  %9 = ptrtoint ptr %8 to i64
  %10 = lshr i64 %9, 9
  %11 = xor i64 %7, %10
  ret i64 %11
}

; Function Attrs: mustprogress nounwind uwtable
define linkonce_odr dso_local noundef zeroext i1 @_ZNKSt8equal_toIPKN4Luau11TypePackVarEEclERKS3_S6_(ptr noundef nonnull align 1 dereferenceable(1) %0, ptr noundef nonnull align 8 dereferenceable(8) %1, ptr noundef nonnull align 8 dereferenceable(8) %2) #5 comdat align 2 {
  %4 = alloca ptr, align 8
  %5 = alloca ptr, align 8
  %6 = alloca ptr, align 8
  store ptr %0, ptr %4, align 8
  store ptr %1, ptr %5, align 8
  store ptr %2, ptr %6, align 8
  %7 = load ptr, ptr %5, align 8
  %8 = load ptr, ptr %7, align 8
  %9 = load ptr, ptr %6, align 8
  %10 = load ptr, ptr %9, align 8
  %11 = icmp eq ptr %8, %10
  ret i1 %11
}

; Function Attrs: mustprogress nounwind uwtable
define linkonce_odr dso_local noundef ptr @_ZNKSt15__uniq_ptr_implIN4Luau15PendingTypePackESt14default_deleteIS1_EE6_M_ptrEv(ptr noundef nonnull align 8 dereferenceable(8) %0) #5 comdat align 2 {
  %2 = alloca ptr, align 8
  store ptr %0, ptr %2, align 8
  %3 = load ptr, ptr %2, align 8
  %4 = getelementptr inbounds %"class.std::__uniq_ptr_impl.45", ptr %3, i32 0, i32 0
  %5 = call noundef nonnull align 8 dereferenceable(8) ptr @_ZSt3getILm0EJPN4Luau15PendingTypePackESt14default_deleteIS1_EEERKNSt13tuple_elementIXT_ESt5tupleIJDpT0_EEE4typeERKS9_(ptr noundef nonnull align 8 dereferenceable(8) %4) #3
  %6 = load ptr, ptr %5, align 8
  ret ptr %6
}

; Function Attrs: mustprogress nounwind uwtable
define linkonce_odr dso_local noundef ptr @_ZNK4Luau6detail14DenseHashTableIPKNS_11TypePackVarESt4pairIS4_St10unique_ptrINS_15PendingTypePackESt14default_deleteIS7_EEES5_IKS4_SA_ENS0_16ItemInterfaceMapIS4_SA_EENS_16DenseHashPointerESt8equal_toIS4_EE4findERSC_(ptr noundef nonnull align 8 dereferenceable(34) %0, ptr noundef nonnull align 8 dereferenceable(8) %1) #5 comdat align 2 {
  %3 = alloca ptr, align 8
  %4 = alloca ptr, align 8
  %5 = alloca ptr, align 8
  %6 = alloca i64, align 8
  %7 = alloca i64, align 8
  %8 = alloca i64, align 8
  %9 = alloca ptr, align 8
  store ptr %0, ptr %4, align 8
  store ptr %1, ptr %5, align 8
  %10 = load ptr, ptr %4, align 8
  %11 = getelementptr inbounds %"class.Luau::detail::DenseHashTable.32", ptr %10, i32 0, i32 2
  %12 = load i64, ptr %11, align 8
  %13 = icmp eq i64 %12, 0
  br i1 %13, label %14, label %15

14:                                               ; preds = %2
  store ptr null, ptr %3, align 8
  br label %65

15:                                               ; preds = %2
  %16 = getelementptr inbounds %"class.Luau::detail::DenseHashTable.32", ptr %10, i32 0, i32 5
  %17 = load ptr, ptr %5, align 8
  %18 = getelementptr inbounds %"class.Luau::detail::DenseHashTable.32", ptr %10, i32 0, i32 3
  %19 = call noundef zeroext i1 @_ZNKSt8equal_toIPKN4Luau11TypePackVarEEclERKS3_S6_(ptr noundef nonnull align 1 dereferenceable(1) %16, ptr noundef nonnull align 8 dereferenceable(8) %17, ptr noundef nonnull align 8 dereferenceable(8) %18)
  br i1 %19, label %20, label %21

20:                                               ; preds = %15
  store ptr null, ptr %3, align 8
  br label %65

21:                                               ; preds = %15
  %22 = getelementptr inbounds %"class.Luau::detail::DenseHashTable.32", ptr %10, i32 0, i32 1
  %23 = load i64, ptr %22, align 8
  %24 = sub i64 %23, 1
  store i64 %24, ptr %6, align 8
  %25 = getelementptr inbounds %"class.Luau::detail::DenseHashTable.32", ptr %10, i32 0, i32 4
  %26 = load ptr, ptr %5, align 8
  %27 = load ptr, ptr %26, align 8
  %28 = call noundef i64 @_ZNK4Luau16DenseHashPointerclEPKv(ptr noundef nonnull align 1 dereferenceable(1) %25, ptr noundef %27)
  %29 = load i64, ptr %6, align 8
  %30 = and i64 %28, %29
  store i64 %30, ptr %7, align 8
  store i64 0, ptr %8, align 8
  br label %31

31:                                               ; preds = %61, %21
  %32 = load i64, ptr %8, align 8
  %33 = load i64, ptr %6, align 8
  %34 = icmp ule i64 %32, %33
  br i1 %34, label %35, label %64

35:                                               ; preds = %31
  %36 = getelementptr inbounds %"class.Luau::detail::DenseHashTable.32", ptr %10, i32 0, i32 0
  %37 = load ptr, ptr %36, align 8
  %38 = load i64, ptr %7, align 8
  %39 = getelementptr inbounds %"struct.std::pair.134", ptr %37, i64 %38
  store ptr %39, ptr %9, align 8
  %40 = getelementptr inbounds %"class.Luau::detail::DenseHashTable.32", ptr %10, i32 0, i32 5
  %41 = load ptr, ptr %9, align 8
  %42 = call noundef nonnull align 8 dereferenceable(8) ptr @_ZN4Luau6detail16ItemInterfaceMapIPKNS_11TypePackVarESt10unique_ptrINS_15PendingTypePackESt14default_deleteIS6_EEE6getKeyERKSt4pairIS4_S9_E(ptr noundef nonnull align 8 dereferenceable(16) %41)
  %43 = load ptr, ptr %5, align 8
  %44 = call noundef zeroext i1 @_ZNKSt8equal_toIPKN4Luau11TypePackVarEEclERKS3_S6_(ptr noundef nonnull align 1 dereferenceable(1) %40, ptr noundef nonnull align 8 dereferenceable(8) %42, ptr noundef nonnull align 8 dereferenceable(8) %43)
  br i1 %44, label %45, label %47

45:                                               ; preds = %35
  %46 = load ptr, ptr %9, align 8
  store ptr %46, ptr %3, align 8
  br label %65

47:                                               ; preds = %35
  %48 = getelementptr inbounds %"class.Luau::detail::DenseHashTable.32", ptr %10, i32 0, i32 5
  %49 = load ptr, ptr %9, align 8
  %50 = call noundef nonnull align 8 dereferenceable(8) ptr @_ZN4Luau6detail16ItemInterfaceMapIPKNS_11TypePackVarESt10unique_ptrINS_15PendingTypePackESt14default_deleteIS6_EEE6getKeyERKSt4pairIS4_S9_E(ptr noundef nonnull align 8 dereferenceable(16) %49)
  %51 = getelementptr inbounds %"class.Luau::detail::DenseHashTable.32", ptr %10, i32 0, i32 3
  %52 = call noundef zeroext i1 @_ZNKSt8equal_toIPKN4Luau11TypePackVarEEclERKS3_S6_(ptr noundef nonnull align 1 dereferenceable(1) %48, ptr noundef nonnull align 8 dereferenceable(8) %50, ptr noundef nonnull align 8 dereferenceable(8) %51)
  br i1 %52, label %53, label %54

53:                                               ; preds = %47
  store ptr null, ptr %3, align 8
  br label %65

54:                                               ; preds = %47
  %55 = load i64, ptr %7, align 8
  %56 = load i64, ptr %8, align 8
  %57 = add i64 %55, %56
  %58 = add i64 %57, 1
  %59 = load i64, ptr %6, align 8
  %60 = and i64 %58, %59
  store i64 %60, ptr %7, align 8
  br label %61

61:                                               ; preds = %54
  %62 = load i64, ptr %8, align 8
  %63 = add i64 %62, 1
  store i64 %63, ptr %8, align 8
  br label %31, !llvm.loop !32

64:                                               ; preds = %31
  store ptr null, ptr %3, align 8
  br label %65

65:                                               ; preds = %64, %53, %45, %20, %14
  %66 = load ptr, ptr %3, align 8
  ret ptr %66
}

; Function Attrs: mustprogress nounwind uwtable
define linkonce_odr dso_local noundef ptr @_ZNKSt10unique_ptrIN4Luau15PendingTypePackESt14default_deleteIS1_EE3getEv(ptr noundef nonnull align 8 dereferenceable(8) %0) #5 comdat align 2 {
  %2 = alloca ptr, align 8
  store ptr %0, ptr %2, align 8
  %3 = load ptr, ptr %2, align 8
  %4 = getelementptr inbounds %"class.std::unique_ptr.43", ptr %3, i32 0, i32 0
  %5 = call noundef ptr @_ZNKSt15__uniq_ptr_implIN4Luau15PendingTypePackESt14default_deleteIS1_EE6_M_ptrEv(ptr noundef nonnull align 8 dereferenceable(8) %4) #3
  ret ptr %5
}

; Function Attrs: mustprogress nounwind uwtable
define linkonce_odr dso_local noundef ptr @_ZNK4Luau12DenseHashMapIPKNS_11TypePackVarESt10unique_ptrINS_15PendingTypePackESt14default_deleteIS5_EENS_16DenseHashPointerESt8equal_toIS3_EE4findERKS3_(ptr noundef nonnull align 8 dereferenceable(40) %0, ptr noundef nonnull align 8 dereferenceable(8) %1) #5 comdat align 2 {
  %3 = alloca ptr, align 8
  %4 = alloca ptr, align 8
  %5 = alloca ptr, align 8
  store ptr %0, ptr %3, align 8
  store ptr %1, ptr %4, align 8
  %6 = load ptr, ptr %3, align 8
  %7 = getelementptr inbounds %"class.Luau::DenseHashMap.31", ptr %6, i32 0, i32 0
  %8 = load ptr, ptr %4, align 8
  %9 = call noundef ptr @_ZNK4Luau6detail14DenseHashTableIPKNS_11TypePackVarESt4pairIS4_St10unique_ptrINS_15PendingTypePackESt14default_deleteIS7_EEES5_IKS4_SA_ENS0_16ItemInterfaceMapIS4_SA_EENS_16DenseHashPointerESt8equal_toIS4_EE4findERSC_(ptr noundef nonnull align 8 dereferenceable(34) %7, ptr noundef nonnull align 8 dereferenceable(8) %8)
  store ptr %9, ptr %5, align 8
  %10 = load ptr, ptr %5, align 8
  %11 = icmp ne ptr %10, null
  br i1 %11, label %12, label %15

12:                                               ; preds = %2
  %13 = load ptr, ptr %5, align 8
  %14 = getelementptr inbounds %"struct.std::pair.134", ptr %13, i32 0, i32 1
  br label %16

15:                                               ; preds = %2
  br label %16

16:                                               ; preds = %15, %12
  %17 = phi ptr [ %14, %12 ], [ null, %15 ]
  ret ptr %17
}

; Function Attrs: mustprogress uwtable
define dso_local noundef ptr @_ZNK4Luau6TxnLog7pendingEPKNS_11TypePackVarE(ptr noundef nonnull align 8 dereferenceable(128) %0, ptr noundef %1) #2 align 2 {
  %3 = alloca ptr, align 8
  %4 = alloca ptr, align 8
  %5 = alloca ptr, align 8
  %6 = alloca ptr, align 8
  %7 = alloca ptr, align 8
  store ptr %0, ptr %4, align 8
  store ptr %1, ptr %5, align 8
  %8 = load ptr, ptr %4, align 8
  store ptr %8, ptr %6, align 8
  br label %9

9:                                                ; preds = %22, %2
  %10 = load ptr, ptr %6, align 8
  %11 = icmp ne ptr %10, null
  br i1 %11, label %12, label %26

12:                                               ; preds = %9
  %13 = load ptr, ptr %6, align 8
  %14 = getelementptr inbounds %"struct.Luau::TxnLog", ptr %13, i32 0, i32 1
  %15 = call noundef ptr @_ZNK4Luau12DenseHashMapIPKNS_11TypePackVarESt10unique_ptrINS_15PendingTypePackESt14default_deleteIS5_EENS_16DenseHashPointerESt8equal_toIS3_EE4findERKS3_(ptr noundef nonnull align 8 dereferenceable(40) %14, ptr noundef nonnull align 8 dereferenceable(8) %5)
  store ptr %15, ptr %7, align 8
  %16 = load ptr, ptr %7, align 8
  %17 = icmp ne ptr %16, null
  br i1 %17, label %18, label %21

18:                                               ; preds = %12
  %19 = load ptr, ptr %7, align 8
  %20 = call noundef ptr @_ZNKSt10unique_ptrIN4Luau15PendingTypePackESt14default_deleteIS1_EE3getEv(ptr noundef nonnull align 8 dereferenceable(8) %19) #3
  store ptr %20, ptr %3, align 8
  br label %27

21:                                               ; preds = %12
  br label %22

22:                                               ; preds = %21
  %23 = load ptr, ptr %6, align 8
  %24 = getelementptr inbounds %"struct.Luau::TxnLog", ptr %23, i32 0, i32 2
  %25 = load ptr, ptr %24, align 8
  store ptr %25, ptr %6, align 8
  br label %9, !llvm.loop !9

26:                                               ; preds = %9
  store ptr null, ptr %3, align 8
  br label %27

27:                                               ; preds = %26, %18
  %28 = load ptr, ptr %3, align 8
  ret ptr %28
}

; Function Attrs: mustprogress uwtable
define internal noundef ptr @"_ZZNK4Luau6TxnLog6followEPKNS_11TypePackVarEENK3$_0clEPKvS3_"(ptr noundef nonnull align 1 dereferenceable(1) %0, ptr noundef %1, ptr noundef %2) #2 align 2 {
  %4 = alloca ptr, align 8
  %5 = alloca ptr, align 8
  %6 = alloca ptr, align 8
  %7 = alloca ptr, align 8
  %8 = alloca ptr, align 8
  %9 = alloca ptr, align 8
  store ptr %0, ptr %5, align 8
  store ptr %1, ptr %6, align 8
  store ptr %2, ptr %7, align 8
  %10 = load ptr, ptr %6, align 8
  store ptr %10, ptr %8, align 8
  %11 = load ptr, ptr %8, align 8
  %12 = load ptr, ptr %7, align 8
  %13 = call noundef ptr @_ZNK4Luau6TxnLog7pendingEPKNS_11TypePackVarE(ptr noundef nonnull align 8 dereferenceable(128) %11, ptr noundef %12)
  store ptr %13, ptr %9, align 8
  %14 = load ptr, ptr %9, align 8
  %15 = icmp eq ptr %14, null
  br i1 %15, label %16, label %18

16:                                               ; preds = %3
  %17 = load ptr, ptr %7, align 8
  store ptr %17, ptr %4, align 8
  br label %21

18:                                               ; preds = %3
  %19 = load ptr, ptr %9, align 8
  %20 = getelementptr inbounds %"struct.Luau::PendingTypePack", ptr %19, i32 0, i32 0
  store ptr %20, ptr %4, align 8
  br label %21

21:                                               ; preds = %18, %16
  %22 = load ptr, ptr %4, align 8
  ret ptr %22
}

; Function Attrs: mustprogress uwtable
define internal noundef ptr @"_ZZNK4Luau6TxnLog6followEPKNS_11TypePackVarEEN3$_08__invokeEPKvS3_"(ptr noundef %0, ptr noundef %1) #2 align 2 {
  %3 = alloca ptr, align 8
  %4 = alloca ptr, align 8
  %5 = alloca %class.anon.128, align 1
  store ptr %0, ptr %3, align 8
  store ptr %1, ptr %4, align 8
  %6 = load ptr, ptr %3, align 8
  %7 = load ptr, ptr %4, align 8
  %8 = call noundef ptr @"_ZZNK4Luau6TxnLog6followEPKNS_11TypePackVarEENK3$_0clEPKvS3_"(ptr noundef nonnull align 1 dereferenceable(1) %5, ptr noundef %6, ptr noundef %7)
  ret ptr %8
}