; Function Attrs: mustprogress nofree norecurse nosync nounwind willreturn memory(read, inaccessiblemem: none) uwtable
define internal noundef ptr @"_ZZNK4Luau6TxnLog6followEPKNS_11TypePackVarEEN3$_08__invokeEPKvS3_"(ptr nocapture noundef readonly %0, ptr noundef %1) #8 align 2 {
  %3 = ptrtoint ptr %1 to i64
  %4 = lshr i64 %3, 4
  %5 = lshr i64 %3, 9
  %6 = xor i64 %4, %5
  br label %7

7:                                                ; preds = %.loopexit.i.i, %2
  %.0714.i.i = phi ptr [ %0, %2 ], [ %34, %.loopexit.i.i ]
  %8 = getelementptr inbounds i8, ptr %.0714.i.i, i64 40
  %9 = getelementptr inbounds i8, ptr %.0714.i.i, i64 56
  %10 = load i64, ptr %9, align 8
  %11 = icmp eq i64 %10, 0
  br i1 %11, label %.loopexit.i.i, label %12

12:                                               ; preds = %7
  %13 = getelementptr inbounds i8, ptr %.0714.i.i, i64 64
  %14 = load ptr, ptr %13, align 8
  %15 = icmp eq ptr %14, %1
  br i1 %15, label %.loopexit.i.i, label %16

16:                                               ; preds = %12
  %17 = getelementptr inbounds i8, ptr %.0714.i.i, i64 48
  %18 = load i64, ptr %17, align 8
  %19 = add i64 %18, -1
  %20 = load ptr, ptr %8, align 8
  br label %21

21:                                               ; preds = %27, %16
  %.pn.i.i.i.i = phi i64 [ %6, %16 ], [ %29, %27 ]
  %.01519.i.i.i.i = phi i64 [ 0, %16 ], [ %28, %27 ]
  %.01620.i.i.i.i = and i64 %.pn.i.i.i.i, %19
  %22 = getelementptr inbounds %"struct.std::pair.134", ptr %20, i64 %.01620.i.i.i.i
  %23 = load ptr, ptr %22, align 8
  %24 = icmp eq ptr %23, %1
  br i1 %24, label %30, label %25

25:                                               ; preds = %21
  %26 = icmp eq ptr %23, %14
  br i1 %26, label %.loopexit.i.i, label %27

27:                                               ; preds = %25
  %28 = add i64 %.01519.i.i.i.i, 1
  %29 = add i64 %28, %.01620.i.i.i.i
  %.not.i.i.i.i = icmp ugt i64 %28, %19
  br i1 %.not.i.i.i.i, label %.loopexit.i.i, label %21, !llvm.loop !20

30:                                               ; preds = %21
  %31 = getelementptr inbounds i8, ptr %22, i64 8
  %32 = load ptr, ptr %31, align 8
  br label %"_ZZNK4Luau6TxnLog6followEPKNS_11TypePackVarEENK3$_0clEPKvS3_.exit"

.loopexit.i.i:                                    ; preds = %27, %25, %12, %7
  %33 = getelementptr inbounds i8, ptr %.0714.i.i, i64 80
  %34 = load ptr, ptr %33, align 8
  %.not.i.i = icmp eq ptr %34, null
  br i1 %.not.i.i, label %"_ZZNK4Luau6TxnLog6followEPKNS_11TypePackVarEENK3$_0clEPKvS3_.exit", label %7, !llvm.loop !33

"_ZZNK4Luau6TxnLog6followEPKNS_11TypePackVarEENK3$_0clEPKvS3_.exit": ; preds = %.loopexit.i.i, %30
  %.0.i.i = phi ptr [ %32, %30 ], [ null, %.loopexit.i.i ]
  %35 = icmp eq ptr %.0.i.i, null
  %..i = select i1 %35, ptr %1, ptr %.0.i.i
  ret ptr %..i
}